; Function Attrs: nounwind uwtable
define ptr @Java_java_awt_SplashScreen__1getImageJarName(ptr noundef %0, ptr nocapture noundef readnone %1, i64 noundef %2) local_unnamed_addr #1 {
  %4 = inttoptr i64 %2 to ptr
  %.not = icmp eq i64 %2, 0
  br i1 %.not, label %15, label %5

5:                                                ; preds = %3
  %6 = getelementptr inbounds i8, ptr %4, i64 11688
  %7 = load ptr, ptr %6, align 8
  %.not9 = icmp eq ptr %7, null
  br i1 %.not9, label %15, label %8

8:                                                ; preds = %5
  %9 = load ptr, ptr %0, align 8
  %10 = getelementptr inbounds i8, ptr %9, i64 1304
  %11 = load ptr, ptr %10, align 8
  %12 = getelementptr inbounds i8, ptr %4, i64 11696
  %13 = load i32, ptr %12, align 8
  %14 = tail call ptr %11(ptr noundef nonnull %0, ptr noundef nonnull %7, i32 noundef %13) #6
  br label %15

15:                                               ; preds = %3, %5, %8
  %.0 = phi ptr [ %14, %8 ], [ null, %5 ], [ null, %3 ]
  ret ptr %.0
}